target datalayout = "e-m:e-p270:32:32-p271:32:32-p272:64:64-i64:64-i128:128-f80:128-n8:16:32:64-S128"
target triple = "x86_64-unknown-linux-gnu"

; Function Attrs: mustprogress uwtable
define void @_ZN6icu_7512ByteSinkUtil23appendNonEmptyUnchangedEPKhiRNS_8ByteSinkEjPNS_5EditsE(ptr noundef %s, i32 noundef %length, ptr noundef nonnull align 8 dereferenceable(8) %sink, i32 noundef %options, ptr noundef %edits) #1 align 2 {
entry:
  %s.addr = alloca ptr, align 8
  %length.addr = alloca i32, align 4
  %sink.addr = alloca ptr, align 8
  %options.addr = alloca i32, align 4
  %edits.addr = alloca ptr, align 8
  store ptr %s, ptr %s.addr, align 8
  store i32 %length, ptr %length.addr, align 4
  store ptr %sink, ptr %sink.addr, align 8
  store i32 %options, ptr %options.addr, align 4
  store ptr %edits, ptr %edits.addr, align 8
  %0 = load ptr, ptr %edits.addr, align 8
  %cmp = icmp ne ptr %0, null
  br i1 %cmp, label %if.then, label %if.end

if.then:                                          ; preds = %entry
  %1 = load ptr, ptr %edits.addr, align 8
  %2 = load i32, ptr %length.addr, align 4
  call void @_ZN6icu_755Edits12addUnchangedEi(ptr noundef nonnull align 8 dereferenceable(232) %1, i32 noundef %2)
  br label %if.end

if.end:                                           ; preds = %if.then, %entry
  %3 = load i32, ptr %options.addr, align 4
  %and = and i32 %3, 16384
  %cmp1 = icmp eq i32 %and, 0
  br i1 %cmp1, label %if.then2, label %if.end3

if.then2:                                         ; preds = %if.end
  %4 = load ptr, ptr %sink.addr, align 8
  %5 = load ptr, ptr %s.addr, align 8
  %6 = load i32, ptr %length.addr, align 4
  %vtable = load ptr, ptr %4, align 8
  %vfn = getelementptr inbounds ptr, ptr %vtable, i64 2
  %7 = load ptr, ptr %vfn, align 8
  call void %7(ptr noundef nonnull align 8 dereferenceable(8) %4, ptr noundef %5, i32 noundef %6)
  br label %if.end3

if.end3:                                          ; preds = %if.then2, %if.end
  ret void
}

; Function Attrs: mustprogress nounwind uwtable
define internal noundef signext i8 @_ZL9U_FAILURE10UErrorCode(i32 noundef %code) #0 {
entry:
  %code.addr = alloca i32, align 4
  store i32 %code, ptr %code.addr, align 4
  %0 = load i32, ptr %code.addr, align 4
  %cmp = icmp sgt i32 %0, 0
  %conv = zext i1 %cmp to i8
  ret i8 %conv
}

; Function Attrs: mustprogress uwtable
define noundef signext i8 @_ZN6icu_7512ByteSinkUtil15appendUnchangedEPKhS2_RNS_8ByteSinkEjPNS_5EditsER10UErrorCode(ptr noundef %s, ptr noundef %limit, ptr noundef nonnull align 8 dereferenceable(8) %sink, i32 noundef %options, ptr noundef %edits, ptr noundef nonnull align 4 dereferenceable(4) %errorCode) #1 align 2 {
entry:
  %retval = alloca i8, align 1
  %s.addr = alloca ptr, align 8
  %limit.addr = alloca ptr, align 8
  %sink.addr = alloca ptr, align 8
  %options.addr = alloca i32, align 4
  %edits.addr = alloca ptr, align 8
  %errorCode.addr = alloca ptr, align 8
  %length = alloca i32, align 4
  store ptr %s, ptr %s.addr, align 8
  store ptr %limit, ptr %limit.addr, align 8
  store ptr %sink, ptr %sink.addr, align 8
  store i32 %options, ptr %options.addr, align 4
  store ptr %edits, ptr %edits.addr, align 8
  store ptr %errorCode, ptr %errorCode.addr, align 8
  %0 = load ptr, ptr %errorCode.addr, align 8
  %1 = load i32, ptr %0, align 4
  %call = call noundef signext i8 @_ZL9U_FAILURE10UErrorCode(i32 noundef %1)
  %tobool = icmp ne i8 %call, 0
  br i1 %tobool, label %if.then, label %if.end

if.then:                                          ; preds = %entry
  store i8 0, ptr %retval, align 1
  br label %return

if.end:                                           ; preds = %entry
  %2 = load ptr, ptr %limit.addr, align 8
  %3 = load ptr, ptr %s.addr, align 8
  %sub.ptr.lhs.cast = ptrtoint ptr %2 to i64
  %sub.ptr.rhs.cast = ptrtoint ptr %3 to i64
  %sub.ptr.sub = sub i64 %sub.ptr.lhs.cast, %sub.ptr.rhs.cast
  %cmp = icmp sgt i64 %sub.ptr.sub, 2147483647
  br i1 %cmp, label %if.then1, label %if.end2

if.then1:                                         ; preds = %if.end
  %4 = load ptr, ptr %errorCode.addr, align 8
  store i32 8, ptr %4, align 4
  store i8 0, ptr %retval, align 1
  br label %return

if.end2:                                          ; preds = %if.end
  %5 = load ptr, ptr %limit.addr, align 8
  %6 = load ptr, ptr %s.addr, align 8
  %sub.ptr.lhs.cast3 = ptrtoint ptr %5 to i64
  %sub.ptr.rhs.cast4 = ptrtoint ptr %6 to i64
  %sub.ptr.sub5 = sub i64 %sub.ptr.lhs.cast3, %sub.ptr.rhs.cast4
  %conv = trunc i64 %sub.ptr.sub5 to i32
  store i32 %conv, ptr %length, align 4
  %7 = load i32, ptr %length, align 4
  %cmp6 = icmp sgt i32 %7, 0
  br i1 %cmp6, label %if.then7, label %if.end8

if.then7:                                         ; preds = %if.end2
  %8 = load ptr, ptr %s.addr, align 8
  %9 = load i32, ptr %length, align 4
  %10 = load ptr, ptr %sink.addr, align 8
  %11 = load i32, ptr %options.addr, align 4
  %12 = load ptr, ptr %edits.addr, align 8
  call void @_ZN6icu_7512ByteSinkUtil23appendNonEmptyUnchangedEPKhiRNS_8ByteSinkEjPNS_5EditsE(ptr noundef %8, i32 noundef %9, ptr noundef nonnull align 8 dereferenceable(8) %10, i32 noundef %11, ptr noundef %12)
  br label %if.end8

if.end8:                                          ; preds = %if.then7, %if.end2
  store i8 1, ptr %retval, align 1
  br label %return

return:                                           ; preds = %if.end8, %if.then1, %if.then
  %13 = load i8, ptr %retval, align 1
  ret i8 %13
}