; Function Attrs: mustprogress uwtable
define noundef signext i8 @_ZN6icu_7512ByteSinkUtil15appendUnchangedEPKhS2_RNS_8ByteSinkEjPNS_5EditsER10UErrorCode(ptr noundef %s, ptr noundef %limit, ptr noundef nonnull align 8 dereferenceable(8) %sink, i32 noundef %options, ptr noundef %edits, ptr nocapture noundef nonnull align 4 dereferenceable(4) %errorCode) local_unnamed_addr #1 align 2 {
entry:
  %0 = load i32, ptr %errorCode, align 4
  %cmp.i = icmp slt i32 %0, 1
  br i1 %cmp.i, label %if.end, label %return

if.end:                                           ; preds = %entry
  %sub.ptr.lhs.cast = ptrtoint ptr %limit to i64
  %sub.ptr.rhs.cast = ptrtoint ptr %s to i64
  %sub.ptr.sub = sub i64 %sub.ptr.lhs.cast, %sub.ptr.rhs.cast
  %cmp = icmp sgt i64 %sub.ptr.sub, 2147483647
  br i1 %cmp, label %if.then1, label %if.end2

if.then1:                                         ; preds = %if.end
  store i32 8, ptr %errorCode, align 4
  br label %return

if.end2:                                          ; preds = %if.end
  %conv = trunc i64 %sub.ptr.sub to i32
  %cmp6 = icmp sgt i32 %conv, 0
  br i1 %cmp6, label %if.then7, label %return

if.then7:                                         ; preds = %if.end2
  %cmp.not.i = icmp eq ptr %edits, null
  br i1 %cmp.not.i, label %if.end.i, label %if.then.i

if.then.i:                                        ; preds = %if.then7
  tail call void @_ZN6icu_755Edits12addUnchangedEi(ptr noundef nonnull align 8 dereferenceable(232) %edits, i32 noundef %conv)
  br label %if.end.i

if.end.i:                                         ; preds = %if.then.i, %if.then7
  %and.i = and i32 %options, 16384
  %cmp1.i = icmp eq i32 %and.i, 0
  br i1 %cmp1.i, label %if.then2.i, label %return

if.then2.i:                                       ; preds = %if.end.i
  %vtable.i = load ptr, ptr %sink, align 8
  %vfn.i = getelementptr inbounds i8, ptr %vtable.i, i64 16
  %1 = load ptr, ptr %vfn.i, align 8
  tail call void %1(ptr noundef nonnull align 8 dereferenceable(8) %sink, ptr noundef %s, i32 noundef %conv)
  br label %return

return:                                           ; preds = %if.then2.i, %if.end.i, %if.end2, %entry, %if.then1
  %retval.0 = phi i8 [ 0, %if.then1 ], [ 0, %entry ], [ 1, %if.end2 ], [ 1, %if.end.i ], [ 1, %if.then2.i ]
  ret i8 %retval.0
}